target datalayout = "e-m:e-p270:32:32-p271:32:32-p272:64:64-i64:64-i128:128-f80:128-n8:16:32:64-S128"
target triple = "x86_64-pc-linux-gnu"

%"class.gmx::FreeEnergyPerturbationData::Element" = type <{ %"class.gmx::ISimulatorElement", %"class.gmx::ICheckpointHelperClient", %"class.gmx::IDomDecHelperClient", ptr, i8, [7 x i8], %"class.std::optional.17", i32, i8, [3 x i8] }>
%"class.gmx::ISimulatorElement" = type { ptr }
%"class.gmx::ICheckpointHelperClient" = type { ptr }
%"class.gmx::IDomDecHelperClient" = type { ptr }
%"class.std::optional.17" = type { %"struct.std::_Optional_base.18" }
%"struct.std::_Optional_base.18" = type { %"struct.std::_Optional_payload.20" }
%"struct.std::_Optional_payload.20" = type { %"struct.std::_Optional_payload_base.base.22", [7 x i8] }
%"struct.std::_Optional_payload_base.base.22" = type <{ %"union.std::_Optional_payload_base<gmx::FepStateSetting>::_Storage", i8 }>
%"union.std::_Optional_payload_base<gmx::FepStateSetting>::_Storage" = type { %"class.gmx::FepStateSetting" }
%"class.gmx::FepStateSetting" = type { i64, i32, i64 }
%"class.gmx::FreeEnergyPerturbationData" = type { %"class.std::unique_ptr", %"struct.gmx::EnumerationArray", i32, ptr, ptr, ptr }
%"class.std::unique_ptr" = type { %"struct.std::__uniq_ptr_data" }
%"struct.std::__uniq_ptr_data" = type { %"class.std::__uniq_ptr_impl" }
%"class.std::__uniq_ptr_impl" = type { %"class.std::tuple" }
%"class.std::tuple" = type { %"struct.std::_Tuple_impl" }
%"struct.std::_Tuple_impl" = type { %"struct.std::_Head_base.26" }
%"struct.std::_Head_base.26" = type { ptr }
%"struct.gmx::EnumerationArray" = type { [7 x float] }
%class.anon.265 = type { ptr }
%"class.gmx::MDAtoms" = type { %"class.std::unique_ptr.106", %"class.gmx::PaddedVector", %"class.gmx::PaddedVector" }
%"class.std::unique_ptr.106" = type { %"struct.std::__uniq_ptr_data.107" }
%"struct.std::__uniq_ptr_data.107" = type { %"class.std::__uniq_ptr_impl.108" }
%"class.std::__uniq_ptr_impl.108" = type { %"class.std::tuple.109" }
%"class.std::tuple.109" = type { %"struct.std::_Tuple_impl.110" }
%"struct.std::_Tuple_impl.110" = type { %"struct.std::_Head_base.113" }
%"struct.std::_Head_base.113" = type { ptr }
%"class.gmx::PaddedVector" = type { %"class.std::vector.114", %"class.__gnu_cxx::__normal_iterator" }
%"class.std::vector.114" = type { %"struct.std::_Vector_base.115" }
%"struct.std::_Vector_base.115" = type { %"struct.std::_Vector_base<float, gmx::Allocator<float, gmx::HostAllocationPolicy>>::_Vector_impl" }
%"struct.std::_Vector_base<float, gmx::Allocator<float, gmx::HostAllocationPolicy>>::_Vector_impl" = type { %"class.gmx::Allocator.base", %"struct.std::_Vector_base<float, gmx::Allocator<float, gmx::HostAllocationPolicy>>::_Vector_impl_data" }
%"class.gmx::Allocator.base" = type { %"class.gmx::HostAllocationPolicy.base" }
%"class.gmx::HostAllocationPolicy.base" = type <{ i32, i8 }>
%"struct.std::_Vector_base<float, gmx::Allocator<float, gmx::HostAllocationPolicy>>::_Vector_impl_data" = type { ptr, ptr, ptr }
%"class.__gnu_cxx::__normal_iterator" = type { ptr }

; Function Attrs: mustprogress nounwind uwtable
define linkonce_odr noundef nonnull align 8 dereferenceable(8) ptr @_ZNSt10_Head_baseILm0EP9t_mdatomsLb0EE7_M_headERKS2_(ptr noundef nonnull align 8 dereferenceable(8) %0) #1 comdat align 2 {
  %2 = alloca ptr, align 8
  store ptr %0, ptr %2, align 8, !tbaa !291
  %3 = load ptr, ptr %2, align 8, !tbaa !291
  %4 = getelementptr inbounds nuw %"struct.std::_Head_base.113", ptr %3, i32 0, i32 0
  ret ptr %4
}

; Function Attrs: mustprogress nounwind uwtable
define linkonce_odr noundef nonnull align 8 dereferenceable(8) ptr @_ZNSt11_Tuple_implILm0EJP9t_mdatomsSt14default_deleteIS0_EEE7_M_headERKS4_(ptr noundef nonnull align 8 dereferenceable(8) %0) #1 comdat align 2 {
  %2 = alloca ptr, align 8
  store ptr %0, ptr %2, align 8, !tbaa !289
  %3 = load ptr, ptr %2, align 8, !tbaa !289
  %4 = call noundef nonnull align 8 dereferenceable(8) ptr @_ZNSt10_Head_baseILm0EP9t_mdatomsLb0EE7_M_headERKS2_(ptr noundef nonnull align 8 dereferenceable(8) %3) #22
  ret ptr %4
}

; Function Attrs: mustprogress nounwind uwtable
define linkonce_odr noundef nonnull align 8 dereferenceable(8) ptr @_ZSt12__get_helperILm0EP9t_mdatomsJSt14default_deleteIS0_EEERKT0_RKSt11_Tuple_implIXT_EJS4_DpT1_EE(ptr noundef nonnull align 8 dereferenceable(8) %0) #1 comdat {
  %2 = alloca ptr, align 8
  store ptr %0, ptr %2, align 8, !tbaa !289
  %3 = load ptr, ptr %2, align 8, !tbaa !289
  %4 = call noundef nonnull align 8 dereferenceable(8) ptr @_ZNSt11_Tuple_implILm0EJP9t_mdatomsSt14default_deleteIS0_EEE7_M_headERKS4_(ptr noundef nonnull align 8 dereferenceable(8) %3) #22
  ret ptr %4
}

; Function Attrs: mustprogress nounwind uwtable
define linkonce_odr noundef nonnull align 8 dereferenceable(8) ptr @_ZSt3getILm0EJP9t_mdatomsSt14default_deleteIS0_EEERKNSt13tuple_elementIXT_ESt5tupleIJDpT0_EEE4typeERKS8_(ptr noundef nonnull align 8 dereferenceable(8) %0) #1 comdat {
  %2 = alloca ptr, align 8
  store ptr %0, ptr %2, align 8, !tbaa !287
  %3 = load ptr, ptr %2, align 8, !tbaa !287
  %4 = call noundef nonnull align 8 dereferenceable(8) ptr @_ZSt12__get_helperILm0EP9t_mdatomsJSt14default_deleteIS0_EEERKT0_RKSt11_Tuple_implIXT_EJS4_DpT1_EE(ptr noundef nonnull align 8 dereferenceable(8) %3) #22
  ret ptr %4
}

; Function Attrs: mustprogress nounwind uwtable
define linkonce_odr noundef ptr @_ZNKSt15__uniq_ptr_implI9t_mdatomsSt14default_deleteIS0_EE6_M_ptrEv(ptr noundef nonnull align 8 dereferenceable(8) %0) #1 comdat align 2 {
  %2 = alloca ptr, align 8
  store ptr %0, ptr %2, align 8, !tbaa !283
  %3 = load ptr, ptr %2, align 8
  %4 = getelementptr inbounds nuw %"class.std::__uniq_ptr_impl.108", ptr %3, i32 0, i32 0
  %5 = call noundef nonnull align 8 dereferenceable(8) ptr @_ZSt3getILm0EJP9t_mdatomsSt14default_deleteIS0_EEERKNSt13tuple_elementIXT_ESt5tupleIJDpT0_EEE4typeERKS8_(ptr noundef nonnull align 8 dereferenceable(8) %4) #22
  %6 = load ptr, ptr %5, align 8, !tbaa !285
  ret ptr %6
}

; Function Attrs: mustprogress nounwind uwtable
define linkonce_odr noundef ptr @_ZNKSt10unique_ptrI9t_mdatomsSt14default_deleteIS0_EE3getEv(ptr noundef nonnull align 8 dereferenceable(8) %0) #1 comdat align 2 {
  %2 = alloca ptr, align 8
  store ptr %0, ptr %2, align 8, !tbaa !281
  %3 = load ptr, ptr %2, align 8
  %4 = getelementptr inbounds nuw %"class.std::unique_ptr.106", ptr %3, i32 0, i32 0
  %5 = call noundef ptr @_ZNKSt15__uniq_ptr_implI9t_mdatomsSt14default_deleteIS0_EE6_M_ptrEv(ptr noundef nonnull align 8 dereferenceable(8) %4) #22
  ret ptr %5
}

; Function Attrs: mustprogress nounwind uwtable
define linkonce_odr noundef nonnull align 4 dereferenceable(4) ptr @_ZN3gmx16EnumerationArrayI34FreeEnergyPerturbationCouplingTypefLS1_7EEixES1_(ptr noundef nonnull align 4 dereferenceable(28) %0, i32 noundef %1) #1 comdat align 2 {
  %3 = alloca ptr, align 8
  %4 = alloca i32, align 4
  store ptr %0, ptr %3, align 8, !tbaa !188
  store i32 %1, ptr %4, align 4, !tbaa !279
  %5 = load ptr, ptr %3, align 8
  %6 = getelementptr inbounds nuw %"struct.gmx::EnumerationArray", ptr %5, i32 0, i32 0
  %7 = load i32, ptr %4, align 4, !tbaa !279
  %8 = sext i32 %7 to i64
  %9 = getelementptr inbounds nuw [7 x float], ptr %6, i64 0, i64 %8
  ret ptr %9
}

; Function Attrs: mustprogress nounwind uwtable
define linkonce_odr noundef ptr @_ZN3gmx7MDAtoms7mdatomsEv(ptr noundef nonnull align 8 dereferenceable(88) %0) #1 comdat align 2 {
  %2 = alloca ptr, align 8
  store ptr %0, ptr %2, align 8, !tbaa !72
  %3 = load ptr, ptr %2, align 8
  %4 = getelementptr inbounds nuw %"class.gmx::MDAtoms", ptr %3, i32 0, i32 0
  %5 = call noundef ptr @_ZNKSt10unique_ptrI9t_mdatomsSt14default_deleteIS0_EE3getEv(ptr noundef nonnull align 8 dereferenceable(8) %4) #22
  ret ptr %5
}

; Function Attrs: mustprogress uwtable
define void @_ZN3gmx26FreeEnergyPerturbationData13updateMDAtomsEv(ptr noundef nonnull align 8 dereferenceable(64) %0) #0 align 2 {
  %2 = alloca ptr, align 8
  store ptr %0, ptr %2, align 8, !tbaa !67
  %3 = load ptr, ptr %2, align 8
  %4 = getelementptr inbounds nuw %"class.gmx::FreeEnergyPerturbationData", ptr %3, i32 0, i32 5
  %5 = load ptr, ptr %4, align 8, !tbaa !86
  %6 = call noundef ptr @_ZN3gmx7MDAtoms7mdatomsEv(ptr noundef nonnull align 8 dereferenceable(88) %5)
  %7 = getelementptr inbounds nuw %"class.gmx::FreeEnergyPerturbationData", ptr %3, i32 0, i32 1
  %8 = call noundef nonnull align 4 dereferenceable(4) ptr @_ZN3gmx16EnumerationArrayI34FreeEnergyPerturbationCouplingTypefLS1_7EEixES1_(ptr noundef nonnull align 4 dereferenceable(28) %7, i32 noundef 1)
  %9 = load float, ptr %8, align 4, !tbaa !226
  call void @_Z14update_mdatomsP9t_mdatomsf(ptr noundef %6, float noundef %9)
  ret void
}

; Function Attrs: inlinehint mustprogress uwtable
define internal void @"_ZZN3gmx26FreeEnergyPerturbationData7Element22registerDomDecCallbackEvENK3$_0clEv"(ptr noundef nonnull align 8 dereferenceable(8) %0) #5 align 2 {
  %2 = alloca ptr, align 8
  store ptr %0, ptr %2, align 8, !tbaa !258
  %3 = load ptr, ptr %2, align 8
  %4 = getelementptr inbounds nuw %class.anon.265, ptr %3, i32 0, i32 0
  %5 = load ptr, ptr %4, align 8, !tbaa !65
  %6 = getelementptr inbounds nuw %"class.gmx::FreeEnergyPerturbationData::Element", ptr %5, i32 0, i32 3
  %7 = load ptr, ptr %6, align 8, !tbaa !40
  call void @_ZN3gmx26FreeEnergyPerturbationData13updateMDAtomsEv(ptr noundef nonnull align 8 dereferenceable(64) %7)
  ret void
}

; Function Attrs: mustprogress nounwind uwtable
define linkonce_odr noundef ptr @_ZNKSt9_Any_data9_M_accessEv(ptr noundef nonnull align 8 dereferenceable(16) %0) #1 comdat align 2 {
  %2 = alloca ptr, align 8
  store ptr %0, ptr %2, align 8, !tbaa !270
  %3 = load ptr, ptr %2, align 8
  %4 = getelementptr inbounds [16 x i8], ptr %3, i64 0, i64 0
  ret ptr %4
}

; Function Attrs: mustprogress uwtable
define internal void @"_ZSt13__invoke_implIvRZN3gmx26FreeEnergyPerturbationData7Element22registerDomDecCallbackEvE3$_0JEET_St14__invoke_otherOT0_DpOT1_"(ptr noundef nonnull align 8 dereferenceable(8) %0) #0 {
  %2 = alloca ptr, align 8
  store ptr %0, ptr %2, align 8, !tbaa !258
  %3 = load ptr, ptr %2, align 8, !tbaa !258
  call void @"_ZZN3gmx26FreeEnergyPerturbationData7Element22registerDomDecCallbackEvENK3$_0clEv"(ptr noundef nonnull align 8 dereferenceable(8) %3)
  ret void
}

; Function Attrs: mustprogress nounwind uwtable
define internal noundef nonnull align 8 dereferenceable(8) ptr @"_ZNKSt9_Any_data9_M_accessIZN3gmx26FreeEnergyPerturbationData7Element22registerDomDecCallbackEvE3$_0EERKT_v"(ptr noundef nonnull align 8 dereferenceable(16) %0) #1 align 2 {
  %2 = alloca ptr, align 8
  store ptr %0, ptr %2, align 8, !tbaa !270
  %3 = load ptr, ptr %2, align 8
  %4 = call noundef ptr @_ZNKSt9_Any_data9_M_accessEv(ptr noundef nonnull align 8 dereferenceable(16) %3) #22
  ret ptr %4
}

; Function Attrs: mustprogress uwtable
define internal void @"_ZSt10__invoke_rIvRZN3gmx26FreeEnergyPerturbationData7Element22registerDomDecCallbackEvE3$_0JEENSt9enable_ifIX16is_invocable_r_vIT_T0_DpT1_EES6_E4typeEOS7_DpOS8_"(ptr noundef nonnull align 8 dereferenceable(8) %0) #0 {
  %2 = alloca ptr, align 8
  store ptr %0, ptr %2, align 8, !tbaa !258
  %3 = load ptr, ptr %2, align 8, !tbaa !258
  call void @"_ZSt13__invoke_implIvRZN3gmx26FreeEnergyPerturbationData7Element22registerDomDecCallbackEvE3$_0JEET_St14__invoke_otherOT0_DpOT1_"(ptr noundef nonnull align 8 dereferenceable(8) %3)
  ret void
}

; Function Attrs: mustprogress nounwind uwtable
define internal noundef ptr @"_ZNSt14_Function_base13_Base_managerIZN3gmx26FreeEnergyPerturbationData7Element22registerDomDecCallbackEvE3$_0E14_M_get_pointerERKSt9_Any_data"(ptr noundef nonnull align 8 dereferenceable(16) %0) #1 align 2 {
  %2 = alloca ptr, align 8
  %3 = alloca ptr, align 8
  store ptr %0, ptr %2, align 8, !tbaa !270
  call void @llvm.lifetime.start.p0(i64 8, ptr %3) #22
  %4 = load ptr, ptr %2, align 8, !tbaa !270
  %5 = call noundef nonnull align 8 dereferenceable(8) ptr @"_ZNKSt9_Any_data9_M_accessIZN3gmx26FreeEnergyPerturbationData7Element22registerDomDecCallbackEvE3$_0EERKT_v"(ptr noundef nonnull align 8 dereferenceable(16) %4) #22
  store ptr %5, ptr %3, align 8, !tbaa !258
  %6 = load ptr, ptr %3, align 8, !tbaa !258
  call void @llvm.lifetime.end.p0(i64 8, ptr %3) #22
  ret ptr %6
}

; Function Attrs: mustprogress uwtable
define internal void @"_ZNSt17_Function_handlerIFvvEZN3gmx26FreeEnergyPerturbationData7Element22registerDomDecCallbackEvE3$_0E9_M_invokeERKSt9_Any_data"(ptr noundef nonnull align 8 dereferenceable(16) %0) #0 align 2 {
  %2 = alloca ptr, align 8
  store ptr %0, ptr %2, align 8, !tbaa !270
  %3 = load ptr, ptr %2, align 8, !tbaa !270
  %4 = call noundef ptr @"_ZNSt14_Function_base13_Base_managerIZN3gmx26FreeEnergyPerturbationData7Element22registerDomDecCallbackEvE3$_0E14_M_get_pointerERKSt9_Any_data"(ptr noundef nonnull align 8 dereferenceable(16) %3) #22
  call void @"_ZSt10__invoke_rIvRZN3gmx26FreeEnergyPerturbationData7Element22registerDomDecCallbackEvE3$_0JEENSt9enable_ifIX16is_invocable_r_vIT_T0_DpT1_EES6_E4typeEOS7_DpOS8_"(ptr noundef nonnull align 8 dereferenceable(8) %4)
  ret void
}