; Function Attrs: mustprogress uwtable
define internal void @"_ZNSt17_Function_handlerIFvvEZN3gmx26FreeEnergyPerturbationData7Element22registerDomDecCallbackEvE3$_0E9_M_invokeERKSt9_Any_data"(ptr noundef nonnull readonly align 8 captures(none) dereferenceable(16) %0) #0 align 2 {
  %.val = load ptr, ptr %0, align 8, !tbaa !361
  %2 = getelementptr i8, ptr %.val, i64 24
  %.val.val = load ptr, ptr %2, align 8, !tbaa !34
  %3 = getelementptr i8, ptr %.val.val, i64 12
  %.val.val.val = load float, ptr %3, align 4, !tbaa !49
  %4 = getelementptr i8, ptr %.val.val, i64 56
  %.val.val.val1 = load ptr, ptr %4, align 8, !tbaa !35
  %.val.val.val1.val = load ptr, ptr %.val.val.val1, align 8, !tbaa !47
  tail call void @_Z14update_mdatomsP9t_mdatomsf(ptr noundef %.val.val.val1.val, float noundef %.val.val.val)
  ret void
}